; Function Attrs: mustprogress uwtable
define hidden noundef zeroext i1 @_ZN2cv8tracking4impl21TrackerMedianFlowImpl10updateImplERKNS_3MatERNS_5Rect_IdEE(ptr noundef nonnull readonly align 8 captures(none) dereferenceable(112) %0, ptr noundef nonnull align 8 dereferenceable(96) %1, ptr noundef nonnull writeonly align 8 captures(none) dereferenceable(32) %2) unnamed_addr #3 align 2 personality ptr @__gxx_personality_v0 {
  %4 = alloca %"class.cv::_OutputArray", align 8
  %5 = alloca %"class.cv::Mat", align 8
  %6 = alloca %"class.cv::Rect_", align 8
  %7 = alloca %"class.cv::Mat", align 8
  %8 = alloca %"class.cv::Mat", align 8
  call void @llvm.lifetime.start.p0(i64 96, ptr nonnull %5) #27
  %9 = getelementptr inbounds nuw i8, ptr %0, i64 48
  %10 = load ptr, ptr %9, align 8, !tbaa !43
  %11 = getelementptr inbounds nuw i8, ptr %10, i64 136
  call void @_ZN2cv3MatC1ERKS0_(ptr noundef nonnull align 8 dereferenceable(96) %5, ptr noundef nonnull align 8 dereferenceable(96) %11)
  %12 = load ptr, ptr %9, align 8, !tbaa !43
  %13 = getelementptr inbounds nuw i8, ptr %12, i64 104
  call void @llvm.memcpy.p0.p0.i64(ptr noundef nonnull align 8 dereferenceable(32) %6, ptr noundef nonnull align 8 dereferenceable(32) %13, i64 32, i1 false), !tbaa.struct !52
  invoke void @_ZN2cv3MatC1ERKS0_(ptr noundef nonnull align 8 dereferenceable(96) %7, ptr noundef nonnull align 8 dereferenceable(96) %5)
          to label %14 unwind label %18

14:                                               ; preds = %3
  invoke void @_ZN2cv3MatC1ERKS0_(ptr noundef nonnull align 8 dereferenceable(96) %8, ptr noundef nonnull align 8 dereferenceable(96) %1)
          to label %15 unwind label %20

15:                                               ; preds = %14
  %16 = invoke noundef zeroext i1 @_ZN2cv8tracking4impl21TrackerMedianFlowImpl14medianFlowImplENS_3MatES3_RNS_5Rect_IdEE(ptr noundef nonnull align 8 dereferenceable(112) %0, ptr noundef nonnull %7, ptr noundef nonnull %8, ptr noundef nonnull align 8 dereferenceable(32) %6)
          to label %17 unwind label %22

17:                                               ; preds = %15
  call void @_ZN2cv3MatD1Ev(ptr noundef nonnull align 8 dereferenceable(96) %8) #27
  call void @_ZN2cv3MatD1Ev(ptr noundef nonnull align 8 dereferenceable(96) %7) #27
  br i1 %16, label %25, label %33

18:                                               ; preds = %25, %3
  %19 = landingpad { ptr, i32 }
          cleanup
  br label %34

20:                                               ; preds = %14
  %21 = landingpad { ptr, i32 }
          cleanup
  br label %24

22:                                               ; preds = %15
  %23 = landingpad { ptr, i32 }
          cleanup
  call void @_ZN2cv3MatD1Ev(ptr noundef nonnull align 8 dereferenceable(96) %8) #27
  br label %24

24:                                               ; preds = %22, %20
  %.pn = phi { ptr, i32 } [ %23, %22 ], [ %21, %20 ]
  call void @_ZN2cv3MatD1Ev(ptr noundef nonnull align 8 dereferenceable(96) %7) #27
  br label %34

25:                                               ; preds = %17
  call void @llvm.memcpy.p0.p0.i64(ptr noundef nonnull align 8 dereferenceable(32) %2, ptr noundef nonnull align 8 dereferenceable(32) %6, i64 32, i1 false), !tbaa.struct !52
  %26 = load ptr, ptr %9, align 8, !tbaa !43
  call void @llvm.lifetime.start.p0(i64 24, ptr nonnull %4) #27
  %27 = getelementptr inbounds nuw i8, ptr %26, i64 136
  %28 = getelementptr inbounds nuw i8, ptr %4, i64 8
  %29 = getelementptr inbounds nuw i8, ptr %4, i64 16
  store i64 0, ptr %29, align 8
  store i32 33619968, ptr %4, align 8, !tbaa !48
  store ptr %27, ptr %28, align 8, !tbaa !51
  invoke void @_ZNK2cv3Mat6copyToERKNS_12_OutputArrayE(ptr noundef nonnull align 8 dereferenceable(96) %1, ptr noundef nonnull align 8 dereferenceable(24) %4)
          to label %30 unwind label %18

30:                                               ; preds = %25
  call void @llvm.lifetime.end.p0(i64 24, ptr nonnull %4) #27
  %31 = load ptr, ptr %9, align 8, !tbaa !43
  %32 = getelementptr inbounds nuw i8, ptr %31, i64 104
  call void @llvm.memcpy.p0.p0.i64(ptr noundef nonnull align 8 dereferenceable(32) %32, ptr noundef nonnull align 8 dereferenceable(32) %6, i64 32, i1 false)
  br label %33

33:                                               ; preds = %17, %30
  call void @_ZN2cv3MatD1Ev(ptr noundef nonnull align 8 dereferenceable(96) %5) #27
  call void @llvm.lifetime.end.p0(i64 96, ptr nonnull %5) #27
  ret i1 %16

34:                                               ; preds = %24, %18
  %.pn10 = phi { ptr, i32 } [ %19, %18 ], [ %.pn, %24 ]
  call void @_ZN2cv3MatD1Ev(ptr noundef nonnull align 8 dereferenceable(96) %5) #27
  call void @llvm.lifetime.end.p0(i64 96, ptr nonnull %5) #27
  resume { ptr, i32 } %.pn10
}